; Function Attrs: mustprogress nofree norecurse nosync nounwind willreturn memory(read, inaccessiblemem: none) uwtable
define range(i32 7, 14) i32 @Gia_ManEncodeFanin(ptr noundef readonly captures(none) %0, i32 noundef %1) local_unnamed_addr #12 {
  %3 = ashr i32 %1, 1
  %4 = getelementptr i8, ptr %0, i64 32
  %.val = load ptr, ptr %4, align 8
  %5 = sext i32 %3 to i64
  %6 = getelementptr inbounds %struct.Gia_Obj_t_, ptr %.val, i64 %5
  %.val15 = load i64, ptr %6, align 4
  %7 = and i64 %.val15, 2305843005455597567
  %narrow.i.not = icmp eq i64 %7, 2305843005455597567
  br i1 %narrow.i.not, label %30, label %8

8:                                                ; preds = %2
  %9 = and i64 %.val15, 2684354559
  %narrow.i.not.i = icmp eq i64 %9, 2684354559
  br i1 %narrow.i.not.i, label %Gia_ObjIsPi.exit, label %17

Gia_ObjIsPi.exit:                                 ; preds = %8
  %10 = lshr i64 %.val15, 32
  %11 = trunc nuw i64 %10 to i32
  %12 = and i32 %11, 536870911
  %13 = getelementptr i8, ptr %0, i64 16
  %.val4.i = load i32, ptr %13, align 8
  %14 = getelementptr i8, ptr %0, i64 64
  %.val5.i = load ptr, ptr %14, align 8
  %15 = getelementptr i8, ptr %.val5.i, i64 4
  %.val5.val.i = load i32, ptr %15, align 4
  %16 = sub nsw i32 %.val5.val.i, %.val4.i
  %.not28 = icmp slt i32 %12, %16
  %spec.select = select i1 %.not28, i32 9, i32 10
  br label %30

17:                                               ; preds = %8
  %18 = and i64 %.val15, 2147483648
  %.not.i.i = icmp ne i64 %18, 0
  %19 = and i64 %.val15, 536870911
  %20 = icmp eq i64 %19, 536870911
  %narrow.i.not.i20 = or i1 %.not.i.i, %20
  br i1 %narrow.i.not.i20, label %Gia_ObjIsXor.exit.thread, label %Gia_ObjIsXor.exit

Gia_ObjIsXor.exit:                                ; preds = %17
  %21 = trunc i64 %.val15 to i32
  %22 = and i32 %21, 536870911
  %23 = lshr i64 %.val15, 32
  %24 = trunc nuw i64 %23 to i32
  %25 = and i32 %24, 536870911
  %.not = icmp samesign ult i32 %22, %25
  br i1 %.not, label %30, label %Gia_ObjIsXor.exit.thread

Gia_ObjIsXor.exit.thread:                         ; preds = %17, %Gia_ObjIsXor.exit
  %26 = getelementptr i8, ptr %0, i64 40
  %.val18 = load ptr, ptr %26, align 8
  %.not.i.i21 = icmp eq ptr %.val18, null
  br i1 %.not.i.i21, label %Gia_ObjIsMux.exit.thread, label %Gia_ObjIsMux.exit

Gia_ObjIsMux.exit:                                ; preds = %Gia_ObjIsXor.exit.thread
  %27 = shl nsw i64 %5, 2
  %28 = getelementptr inbounds i8, ptr %.val18, i64 %27
  %29 = load i32, ptr %28, align 4
  %.fr = freeze i32 %29
  %.not27 = icmp eq i32 %.fr, 0
  br i1 %.not27, label %Gia_ObjIsMux.exit.thread, label %30

Gia_ObjIsMux.exit.thread:                         ; preds = %Gia_ObjIsXor.exit.thread, %Gia_ObjIsMux.exit
  br label %30

30:                                               ; preds = %Gia_ObjIsPi.exit, %Gia_ObjIsMux.exit.thread, %Gia_ObjIsMux.exit, %Gia_ObjIsXor.exit, %2
  %.0 = phi i32 [ 7, %2 ], [ 11, %Gia_ObjIsXor.exit ], [ 13, %Gia_ObjIsMux.exit.thread ], [ 12, %Gia_ObjIsMux.exit ], [ %spec.select, %Gia_ObjIsPi.exit ]
  ret i32 %.0
}